target datalayout = "e-m:e-p270:32:32-p271:32:32-p272:64:64-i64:64-i128:128-f80:128-n8:16:32:64-S128"
target triple = "x86_64-pc-linux-gnu"

@.str.5 = private unnamed_addr constant [17 x i8] c"Request canceled\00", align 1
@.str.6 = private unnamed_addr constant [9 x i8] c"No error\00", align 1
@.str.7 = private unnamed_addr constant [42 x i8] c"address family for nodename not supported\00", align 1
@.str.8 = private unnamed_addr constant [37 x i8] c"temporary failure in name resolution\00", align 1
@.str.9 = private unnamed_addr constant [27 x i8] c"invalid value for ai_flags\00", align 1
@.str.10 = private unnamed_addr constant [43 x i8] c"non-recoverable failure in name resolution\00", align 1
@.str.11 = private unnamed_addr constant [24 x i8] c"ai_family not supported\00", align 1
@.str.12 = private unnamed_addr constant [26 x i8] c"memory allocation failure\00", align 1
@.str.13 = private unnamed_addr constant [36 x i8] c"no address associated with nodename\00", align 1
@.str.14 = private unnamed_addr constant [45 x i8] c"nodename nor servname provided, or not known\00", align 1
@.str.15 = private unnamed_addr constant [39 x i8] c"servname not supported for ai_socktype\00", align 1
@.str.16 = private unnamed_addr constant [26 x i8] c"ai_socktype not supported\00", align 1
@.str.17 = private unnamed_addr constant [13 x i8] c"system error\00", align 1

; Function Attrs: nounwind uwtable
define ptr @evutil_gai_strerror(i32 noundef %0) #0 {
  %2 = alloca ptr, align 8
  %3 = alloca i32, align 4
  store i32 %0, ptr %3, align 4
  %4 = load i32, ptr %3, align 4
  switch i32 %4, label %18 [
    i32 -90001, label %5
    i32 0, label %6
    i32 -9, label %7
    i32 -3, label %8
    i32 -1, label %9
    i32 -4, label %10
    i32 -6, label %11
    i32 -10, label %12
    i32 -5, label %13
    i32 -2, label %14
    i32 -8, label %15
    i32 -7, label %16
    i32 -11, label %17
  ]

5:                                                ; preds = %1
  store ptr @.str.5, ptr %2, align 8
  br label %21

6:                                                ; preds = %1
  store ptr @.str.6, ptr %2, align 8
  br label %21

7:                                                ; preds = %1
  store ptr @.str.7, ptr %2, align 8
  br label %21

8:                                                ; preds = %1
  store ptr @.str.8, ptr %2, align 8
  br label %21

9:                                                ; preds = %1
  store ptr @.str.9, ptr %2, align 8
  br label %21

10:                                               ; preds = %1
  store ptr @.str.10, ptr %2, align 8
  br label %21

11:                                               ; preds = %1
  store ptr @.str.11, ptr %2, align 8
  br label %21

12:                                               ; preds = %1
  store ptr @.str.12, ptr %2, align 8
  br label %21

13:                                               ; preds = %1
  store ptr @.str.13, ptr %2, align 8
  br label %21

14:                                               ; preds = %1
  store ptr @.str.14, ptr %2, align 8
  br label %21

15:                                               ; preds = %1
  store ptr @.str.15, ptr %2, align 8
  br label %21

16:                                               ; preds = %1
  store ptr @.str.16, ptr %2, align 8
  br label %21

17:                                               ; preds = %1
  store ptr @.str.17, ptr %2, align 8
  br label %21

18:                                               ; preds = %1
  %19 = load i32, ptr %3, align 4
  %20 = call ptr @gai_strerror(i32 noundef %19) #11
  store ptr %20, ptr %2, align 8
  br label %21

21:                                               ; preds = %18, %17, %16, %15, %14, %13, %12, %11, %10, %9, %8, %7, %6, %5
  %22 = load ptr, ptr %2, align 8
  ret ptr %22
}