; Function Attrs: nounwind uwtable
define ptr @evutil_gai_strerror(i32 noundef %0) local_unnamed_addr #0 {
  switch i32 %0, label %14 [
    i32 -90001, label %16
    i32 0, label %2
    i32 -9, label %3
    i32 -3, label %4
    i32 -1, label %5
    i32 -4, label %6
    i32 -6, label %7
    i32 -10, label %8
    i32 -5, label %9
    i32 -2, label %10
    i32 -8, label %11
    i32 -7, label %12
    i32 -11, label %13
  ]

2:                                                ; preds = %1
  br label %16

3:                                                ; preds = %1
  br label %16

4:                                                ; preds = %1
  br label %16

5:                                                ; preds = %1
  br label %16

6:                                                ; preds = %1
  br label %16

7:                                                ; preds = %1
  br label %16

8:                                                ; preds = %1
  br label %16

9:                                                ; preds = %1
  br label %16

10:                                               ; preds = %1
  br label %16

11:                                               ; preds = %1
  br label %16

12:                                               ; preds = %1
  br label %16

13:                                               ; preds = %1
  br label %16

14:                                               ; preds = %1
  %15 = tail call ptr @gai_strerror(i32 noundef %0) #30
  br label %16

16:                                               ; preds = %1, %14, %13, %12, %11, %10, %9, %8, %7, %6, %5, %4, %3, %2
  %.0 = phi ptr [ %15, %14 ], [ @.str.17, %13 ], [ @.str.16, %12 ], [ @.str.15, %11 ], [ @.str.14, %10 ], [ @.str.13, %9 ], [ @.str.12, %8 ], [ @.str.11, %7 ], [ @.str.10, %6 ], [ @.str.9, %5 ], [ @.str.8, %4 ], [ @.str.7, %3 ], [ @.str.6, %2 ], [ @.str.5, %1 ]
  ret ptr %.0
}